target datalayout = "e-m:e-p270:32:32-p271:32:32-p272:64:64-i64:64-i128:128-f80:128-n8:16:32:64-S128"
target triple = "x86_64-pc-linux-gnu"

%struct.DynamicAudioNormalizerContext = type { ptr, %struct.FFBufQueue, i32, i32, i32, i32, i32, i32, double, ptr, double, double, double, double, double, ptr, ptr, ptr, ptr, i32, i32, i32, ptr, %struct.AVChannelLayout, i64, ptr, ptr, ptr, ptr, ptr, ptr, ptr, [6 x double] }
%struct.FFBufQueue = type { [302 x ptr], i16, i16 }
%struct.AVChannelLayout = type { i32, i32, %union.anon.1, ptr }
%union.anon.1 = type { i64 }

; Function Attrs: nounwind uwtable
define internal void @init_gaussian_filter(ptr noundef %0) #1 {
  %2 = alloca ptr, align 8
  %3 = alloca double, align 8
  %4 = alloca double, align 8
  %5 = alloca double, align 8
  %6 = alloca i32, align 4
  %7 = alloca double, align 8
  %8 = alloca double, align 8
  %9 = alloca i32, align 4
  %10 = alloca i32, align 4
  %11 = alloca i32, align 4
  store ptr %0, ptr %2, align 8, !tbaa !22
  call void @llvm.lifetime.start.p0(i64 8, ptr %3) #11
  store double 0.000000e+00, ptr %3, align 8, !tbaa !75
  call void @llvm.lifetime.start.p0(i64 8, ptr %4) #11
  %12 = load ptr, ptr %2, align 8, !tbaa !22
  %13 = getelementptr inbounds nuw %struct.DynamicAudioNormalizerContext, ptr %12, i32 0, i32 4
  %14 = load i32, ptr %13, align 8, !tbaa !24
  %15 = sitofp i32 %14 to double
  %16 = fdiv nsz double %15, 2.000000e+00
  %17 = fsub nsz double %16, 1.000000e+00
  %18 = fdiv nsz double %17, 3.000000e+00
  %19 = fadd nsz double %18, 0x3FD5555555555555
  store double %19, ptr %4, align 8, !tbaa !75
  call void @llvm.lifetime.start.p0(i64 8, ptr %5) #11
  call void @llvm.lifetime.start.p0(i64 4, ptr %6) #11
  %20 = load ptr, ptr %2, align 8, !tbaa !22
  %21 = getelementptr inbounds nuw %struct.DynamicAudioNormalizerContext, ptr %20, i32 0, i32 4
  %22 = load i32, ptr %21, align 8, !tbaa !24
  %23 = sdiv i32 %22, 2
  store i32 %23, ptr %6, align 4, !tbaa !35
  call void @llvm.lifetime.start.p0(i64 8, ptr %7) #11
  %24 = load double, ptr %4, align 8, !tbaa !75
  %25 = call nsz double @llvm.sqrt.f64(double 0x401921FB54442D18)
  %26 = fmul nsz double %24, %25
  %27 = fdiv nsz double 1.000000e+00, %26
  store double %27, ptr %7, align 8, !tbaa !75
  call void @llvm.lifetime.start.p0(i64 8, ptr %8) #11
  %28 = load double, ptr %4, align 8, !tbaa !75
  %29 = fmul nsz double 2.000000e+00, %28
  %30 = load double, ptr %4, align 8, !tbaa !75
  %31 = fmul nsz double %29, %30
  store double %31, ptr %8, align 8, !tbaa !75
  call void @llvm.lifetime.start.p0(i64 4, ptr %9) #11
  store i32 0, ptr %9, align 4, !tbaa !35
  br label %32

32:                                               ; preds = %68, %1
  %33 = load i32, ptr %9, align 4, !tbaa !35
  %34 = load ptr, ptr %2, align 8, !tbaa !22
  %35 = getelementptr inbounds nuw %struct.DynamicAudioNormalizerContext, ptr %34, i32 0, i32 4
  %36 = load i32, ptr %35, align 8, !tbaa !24
  %37 = icmp slt i32 %33, %36
  br i1 %37, label %39, label %38

38:                                               ; preds = %32
  call void @llvm.lifetime.end.p0(i64 4, ptr %9) #11
  br label %71

39:                                               ; preds = %32
  call void @llvm.lifetime.start.p0(i64 4, ptr %10) #11
  %40 = load i32, ptr %9, align 4, !tbaa !35
  %41 = load i32, ptr %6, align 4, !tbaa !35
  %42 = sub nsw i32 %40, %41
  store i32 %42, ptr %10, align 4, !tbaa !35
  %43 = load double, ptr %7, align 8, !tbaa !75
  %44 = load i32, ptr %10, align 4, !tbaa !35
  %45 = sub nsw i32 0, %44
  %46 = load i32, ptr %10, align 4, !tbaa !35
  %47 = mul nsw i32 %45, %46
  %48 = sitofp i32 %47 to double
  %49 = load double, ptr %8, align 8, !tbaa !75
  %50 = fdiv nsz double %48, %49
  %51 = call nsz double @llvm.exp.f64(double %50)
  %52 = fmul nsz double %43, %51
  %53 = load ptr, ptr %2, align 8, !tbaa !22
  %54 = getelementptr inbounds nuw %struct.DynamicAudioNormalizerContext, ptr %53, i32 0, i32 18
  %55 = load ptr, ptr %54, align 8, !tbaa !74
  %56 = load i32, ptr %9, align 4, !tbaa !35
  %57 = sext i32 %56 to i64
  %58 = getelementptr inbounds double, ptr %55, i64 %57
  store double %52, ptr %58, align 8, !tbaa !75
  %59 = load ptr, ptr %2, align 8, !tbaa !22
  %60 = getelementptr inbounds nuw %struct.DynamicAudioNormalizerContext, ptr %59, i32 0, i32 18
  %61 = load ptr, ptr %60, align 8, !tbaa !74
  %62 = load i32, ptr %9, align 4, !tbaa !35
  %63 = sext i32 %62 to i64
  %64 = getelementptr inbounds double, ptr %61, i64 %63
  %65 = load double, ptr %64, align 8, !tbaa !75
  %66 = load double, ptr %3, align 8, !tbaa !75
  %67 = fadd nsz double %66, %65
  store double %67, ptr %3, align 8, !tbaa !75
  call void @llvm.lifetime.end.p0(i64 4, ptr %10) #11
  br label %68

68:                                               ; preds = %39
  %69 = load i32, ptr %9, align 4, !tbaa !35
  %70 = add nsw i32 %69, 1
  store i32 %70, ptr %9, align 4, !tbaa !35
  br label %32, !llvm.loop !83

71:                                               ; preds = %38
  %72 = load double, ptr %3, align 8, !tbaa !75
  %73 = fdiv nsz double 1.000000e+00, %72
  store double %73, ptr %5, align 8, !tbaa !75
  call void @llvm.lifetime.start.p0(i64 4, ptr %11) #11
  store i32 0, ptr %11, align 4, !tbaa !35
  br label %74

74:                                               ; preds = %91, %71
  %75 = load i32, ptr %11, align 4, !tbaa !35
  %76 = load ptr, ptr %2, align 8, !tbaa !22
  %77 = getelementptr inbounds nuw %struct.DynamicAudioNormalizerContext, ptr %76, i32 0, i32 4
  %78 = load i32, ptr %77, align 8, !tbaa !24
  %79 = icmp slt i32 %75, %78
  br i1 %79, label %81, label %80

80:                                               ; preds = %74
  call void @llvm.lifetime.end.p0(i64 4, ptr %11) #11
  br label %94

81:                                               ; preds = %74
  %82 = load double, ptr %5, align 8, !tbaa !75
  %83 = load ptr, ptr %2, align 8, !tbaa !22
  %84 = getelementptr inbounds nuw %struct.DynamicAudioNormalizerContext, ptr %83, i32 0, i32 18
  %85 = load ptr, ptr %84, align 8, !tbaa !74
  %86 = load i32, ptr %11, align 4, !tbaa !35
  %87 = sext i32 %86 to i64
  %88 = getelementptr inbounds double, ptr %85, i64 %87
  %89 = load double, ptr %88, align 8, !tbaa !75
  %90 = fmul nsz double %89, %82
  store double %90, ptr %88, align 8, !tbaa !75
  br label %91

91:                                               ; preds = %81
  %92 = load i32, ptr %11, align 4, !tbaa !35
  %93 = add nsw i32 %92, 1
  store i32 %93, ptr %11, align 4, !tbaa !35
  br label %74, !llvm.loop !84

94:                                               ; preds = %80
  call void @llvm.lifetime.end.p0(i64 8, ptr %8) #11
  call void @llvm.lifetime.end.p0(i64 8, ptr %7) #11
  call void @llvm.lifetime.end.p0(i64 4, ptr %6) #11
  call void @llvm.lifetime.end.p0(i64 8, ptr %5) #11
  call void @llvm.lifetime.end.p0(i64 8, ptr %4) #11
  call void @llvm.lifetime.end.p0(i64 8, ptr %3) #11
  ret void
}