; Function Attrs: nofree norecurse nosync nounwind memory(readwrite, inaccessiblemem: none) uwtable
define internal fastcc void @init_gaussian_filter(ptr noundef readonly captures(none) %0) unnamed_addr #5 {
  %2 = getelementptr inbounds nuw i8, ptr %0, i64 2440
  %3 = load i32, ptr %2, align 8, !tbaa !20
  %4 = sitofp i32 %3 to double
  %5 = fmul nsz double %4, 5.000000e-01
  %6 = fadd nsz double %5, -1.000000e+00
  %7 = fdiv nsz double %6, 3.000000e+00
  %8 = fadd nsz double %7, 0x3FD5555555555555
  %.neg = sdiv i32 %3, -2
  %9 = fmul nsz double %8, 0x40040D931FF62705
  %10 = fdiv nsz double 1.000000e+00, %9
  %11 = fmul nsz double %8, 2.000000e+00
  %12 = fmul nsz double %8, %11
  %13 = icmp sgt i32 %3, 0
  br i1 %13, label %.lr.ph, label %._crit_edge32

.lr.ph:                                           ; preds = %1
  %14 = getelementptr inbounds nuw i8, ptr %0, i64 2536
  %15 = load ptr, ptr %14, align 8, !tbaa !48
  %wide.trip.count = zext nneg i32 %3 to i64
  br label %19

.lr.ph31:                                         ; preds = %19
  %16 = fdiv nsz double 1.000000e+00, %29
  %17 = getelementptr inbounds nuw i8, ptr %0, i64 2536
  %18 = load ptr, ptr %17, align 8, !tbaa !48
  %wide.trip.count37 = zext nneg i32 %3 to i64
  br label %30

19:                                               ; preds = %.lr.ph, %19
  %indvars.iv = phi i64 [ 0, %.lr.ph ], [ %indvars.iv.next, %19 ]
  %.02528 = phi double [ 0.000000e+00, %.lr.ph ], [ %29, %19 ]
  %20 = trunc nuw nsw i64 %indvars.iv to i32
  %21 = add i32 %.neg, %20
  %22 = mul i32 %21, %21
  %23 = sub i32 0, %22
  %24 = sitofp i32 %23 to double
  %25 = fdiv nsz double %24, %12
  %26 = tail call nsz double @llvm.exp.f64(double %25)
  %27 = fmul nsz double %10, %26
  %28 = getelementptr inbounds nuw double, ptr %15, i64 %indvars.iv
  store double %27, ptr %28, align 8, !tbaa !49
  %29 = fadd nsz double %.02528, %27
  %indvars.iv.next = add nuw nsw i64 %indvars.iv, 1
  %exitcond.not = icmp eq i64 %indvars.iv.next, %wide.trip.count
  br i1 %exitcond.not, label %.lr.ph31, label %19, !llvm.loop !50

._crit_edge32:                                    ; preds = %30, %1
  ret void

30:                                               ; preds = %.lr.ph31, %30
  %indvars.iv34 = phi i64 [ 0, %.lr.ph31 ], [ %indvars.iv.next35, %30 ]
  %31 = getelementptr inbounds nuw double, ptr %18, i64 %indvars.iv34
  %32 = load double, ptr %31, align 8, !tbaa !49
  %33 = fmul nsz double %16, %32
  store double %33, ptr %31, align 8, !tbaa !49
  %indvars.iv.next35 = add nuw nsw i64 %indvars.iv34, 1
  %exitcond38.not = icmp eq i64 %indvars.iv.next35, %wide.trip.count37
  br i1 %exitcond38.not, label %._crit_edge32, label %30, !llvm.loop !51
}